target datalayout = "e-m:e-p270:32:32-p271:32:32-p272:64:64-i64:64-i128:128-f80:128-n8:16:32:64-S128"
target triple = "x86_64-pc-linux-gnu"

%struct.AVRational = type { i32, i32 }
%struct.AVCodecContext = type { ptr, i32, i32, ptr, i32, i32, ptr, ptr, ptr, i64, i32, i32, ptr, i32, %struct.AVRational, %struct.AVRational, %struct.AVRational, i32, i32, i32, i32, i32, %struct.AVRational, i32, i32, i32, i32, i32, i32, i32, i32, i32, i32, i32, ptr, ptr, i32, float, float, float, float, float, float, float, float, float, i32, i32, i32, i32, i32, i32, i32, i32, i32, i32, i32, i32, ptr, ptr, ptr, i32, i32, i32, i32, i32, i32, i32, i32, i32, i32, %struct.AVChannelLayout, i32, i32, i32, i32, i32, i32, i32, i32, ptr, i32, i32, i32, float, float, i32, i32, i32, i32, i32, ptr, i64, i64, float, float, i32, i32, ptr, ptr, i32, i32, i32, i32, i32, ptr, ptr, ptr, ptr, i32, i32, [8 x i64], i32, i32, i32, i32, i32, i32, i32, ptr, ptr, i32, i32, i32, i32, i32, i32, i32, i32, i32, i32, ptr, ptr, i32, i32, ptr, ptr, ptr, ptr, i32, i32, i64, i32, i32, i64, ptr, i64, ptr, i32, ptr, i32 }
%struct.AVChannelLayout = type { i32, i32, %union.anon, ptr }
%union.anon = type { i64 }
%struct.AVCodecInternal = type { i32, i32, i32, ptr, ptr, ptr, ptr, ptr, ptr, ptr, i32, ptr, ptr, ptr, i32, i32, ptr, i32, ptr, ptr, i32, i32 }
%struct.DecodeContext = type { %struct.AVCodecInternal, i32, i32, i32, i32, i64, i64, i64, i64, i64, ptr, i32, i32, i32 }
%struct.AVCodec = type { ptr, ptr, i32, i32, i32, i8, ptr, ptr, ptr, ptr, ptr, ptr, ptr, ptr }
%struct.AVFrame = type { [8 x ptr], [8 x i32], ptr, i32, i32, i32, i32, i32, %struct.AVRational, i64, i64, %struct.AVRational, i32, ptr, i32, i32, [8 x ptr], ptr, i32, ptr, i32, i32, i32, i32, i32, i32, i32, i64, ptr, i32, ptr, ptr, i64, i64, i64, i64, ptr, %struct.AVChannelLayout, i64 }
%struct.FrameDecodeData = type { ptr, ptr, ptr, ptr, ptr }

@.str = private unnamed_addr constant [30 x i8] c"Assertion %s failed at %s:%d\0A\00", align 1
@.str.2 = private unnamed_addr constant [20 x i8] c"libavcodec/decode.c\00", align 1
@.str.48 = private unnamed_addr constant [63 x i8] c"frame->private_ref || !(avctx->codec->capabilities & (1 << 1))\00", align 1

; Function Attrs: nounwind uwtable
define internal i64 @guess_correct_pts(ptr noundef %0, i64 noundef %1, i64 noundef %2) #0 {
  %4 = alloca ptr, align 8
  %5 = alloca i64, align 8
  %6 = alloca i64, align 8
  %7 = alloca i64, align 8
  store ptr %0, ptr %4, align 8, !tbaa !32
  store i64 %1, ptr %5, align 8, !tbaa !69
  store i64 %2, ptr %6, align 8, !tbaa !69
  call void @llvm.lifetime.start.p0(i64 8, ptr %7) #11
  store i64 -9223372036854775808, ptr %7, align 8, !tbaa !69
  %8 = load i64, ptr %6, align 8, !tbaa !69
  %9 = icmp ne i64 %8, -9223372036854775808
  br i1 %9, label %10, label %25

10:                                               ; preds = %3
  %11 = load i64, ptr %6, align 8, !tbaa !69
  %12 = load ptr, ptr %4, align 8, !tbaa !32
  %13 = getelementptr inbounds nuw %struct.DecodeContext, ptr %12, i32 0, i32 8
  %14 = load i64, ptr %13, align 8, !tbaa !287
  %15 = icmp sle i64 %11, %14
  %16 = zext i1 %15 to i32
  %17 = sext i32 %16 to i64
  %18 = load ptr, ptr %4, align 8, !tbaa !32
  %19 = getelementptr inbounds nuw %struct.DecodeContext, ptr %18, i32 0, i32 6
  %20 = load i64, ptr %19, align 8, !tbaa !285
  %21 = add nsw i64 %20, %17
  store i64 %21, ptr %19, align 8, !tbaa !285
  %22 = load i64, ptr %6, align 8, !tbaa !69
  %23 = load ptr, ptr %4, align 8, !tbaa !32
  %24 = getelementptr inbounds nuw %struct.DecodeContext, ptr %23, i32 0, i32 8
  store i64 %22, ptr %24, align 8, !tbaa !287
  br label %33

25:                                               ; preds = %3
  %26 = load i64, ptr %5, align 8, !tbaa !69
  %27 = icmp ne i64 %26, -9223372036854775808
  br i1 %27, label %28, label %32

28:                                               ; preds = %25
  %29 = load i64, ptr %5, align 8, !tbaa !69
  %30 = load ptr, ptr %4, align 8, !tbaa !32
  %31 = getelementptr inbounds nuw %struct.DecodeContext, ptr %30, i32 0, i32 8
  store i64 %29, ptr %31, align 8, !tbaa !287
  br label %32

32:                                               ; preds = %28, %25
  br label %33

33:                                               ; preds = %32, %10
  %34 = load i64, ptr %5, align 8, !tbaa !69
  %35 = icmp ne i64 %34, -9223372036854775808
  br i1 %35, label %36, label %51

36:                                               ; preds = %33
  %37 = load i64, ptr %5, align 8, !tbaa !69
  %38 = load ptr, ptr %4, align 8, !tbaa !32
  %39 = getelementptr inbounds nuw %struct.DecodeContext, ptr %38, i32 0, i32 7
  %40 = load i64, ptr %39, align 8, !tbaa !288
  %41 = icmp sle i64 %37, %40
  %42 = zext i1 %41 to i32
  %43 = sext i32 %42 to i64
  %44 = load ptr, ptr %4, align 8, !tbaa !32
  %45 = getelementptr inbounds nuw %struct.DecodeContext, ptr %44, i32 0, i32 5
  %46 = load i64, ptr %45, align 8, !tbaa !286
  %47 = add nsw i64 %46, %43
  store i64 %47, ptr %45, align 8, !tbaa !286
  %48 = load i64, ptr %5, align 8, !tbaa !69
  %49 = load ptr, ptr %4, align 8, !tbaa !32
  %50 = getelementptr inbounds nuw %struct.DecodeContext, ptr %49, i32 0, i32 7
  store i64 %48, ptr %50, align 8, !tbaa !288
  br label %59

51:                                               ; preds = %33
  %52 = load i64, ptr %6, align 8, !tbaa !69
  %53 = icmp ne i64 %52, -9223372036854775808
  br i1 %53, label %54, label %58

54:                                               ; preds = %51
  %55 = load i64, ptr %6, align 8, !tbaa !69
  %56 = load ptr, ptr %4, align 8, !tbaa !32
  %57 = getelementptr inbounds nuw %struct.DecodeContext, ptr %56, i32 0, i32 7
  store i64 %55, ptr %57, align 8, !tbaa !288
  br label %58

58:                                               ; preds = %54, %51
  br label %59

59:                                               ; preds = %58, %36
  %60 = load ptr, ptr %4, align 8, !tbaa !32
  %61 = getelementptr inbounds nuw %struct.DecodeContext, ptr %60, i32 0, i32 5
  %62 = load i64, ptr %61, align 8, !tbaa !286
  %63 = load ptr, ptr %4, align 8, !tbaa !32
  %64 = getelementptr inbounds nuw %struct.DecodeContext, ptr %63, i32 0, i32 6
  %65 = load i64, ptr %64, align 8, !tbaa !285
  %66 = icmp sle i64 %62, %65
  br i1 %66, label %70, label %67

67:                                               ; preds = %59
  %68 = load i64, ptr %6, align 8, !tbaa !69
  %69 = icmp eq i64 %68, -9223372036854775808
  br i1 %69, label %70, label %75

70:                                               ; preds = %67, %59
  %71 = load i64, ptr %5, align 8, !tbaa !69
  %72 = icmp ne i64 %71, -9223372036854775808
  br i1 %72, label %73, label %75

73:                                               ; preds = %70
  %74 = load i64, ptr %5, align 8, !tbaa !69
  store i64 %74, ptr %7, align 8, !tbaa !69
  br label %77

75:                                               ; preds = %70, %67
  %76 = load i64, ptr %6, align 8, !tbaa !69
  store i64 %76, ptr %7, align 8, !tbaa !69
  br label %77

77:                                               ; preds = %75, %73
  %78 = load i64, ptr %7, align 8, !tbaa !69
  call void @llvm.lifetime.end.p0(i64 8, ptr %7) #11
  ret i64 %78
}

; Function Attrs: nounwind uwtable
define internal i32 @detect_colorspace(ptr noundef %0, ptr noundef %1) #0 {
  %3 = alloca ptr, align 8
  %4 = alloca ptr, align 8
  store ptr %0, ptr %3, align 8, !tbaa !4
  store ptr %1, ptr %4, align 8, !tbaa !51
  ret i32 0
}

; Function Attrs: nounwind uwtable
define internal ptr @decode_ctx(ptr noundef %0) #0 {
  %2 = alloca ptr, align 8
  store ptr %0, ptr %2, align 8, !tbaa !31
  %3 = load ptr, ptr %2, align 8, !tbaa !31
  ret ptr %3
}

; Function Attrs: nounwind uwtable
define internal i32 @decode_receive_frame_internal(ptr noundef %0, ptr noundef %1) #0 {
  %3 = alloca i32, align 4
  %4 = alloca ptr, align 8
  %5 = alloca ptr, align 8
  %6 = alloca ptr, align 8
  %7 = alloca ptr, align 8
  %8 = alloca i32, align 4
  %9 = alloca i32, align 4
  %10 = alloca i32, align 4
  %11 = alloca ptr, align 8
  store ptr %0, ptr %4, align 8, !tbaa !4
  store ptr %1, ptr %5, align 8, !tbaa !51
  call void @llvm.lifetime.start.p0(i64 8, ptr %6) #11
  %12 = load ptr, ptr %4, align 8, !tbaa !4
  %13 = getelementptr inbounds nuw %struct.AVCodecContext, ptr %12, i32 0, i32 7
  %14 = load ptr, ptr %13, align 8, !tbaa !11
  store ptr %14, ptr %6, align 8, !tbaa !31
  call void @llvm.lifetime.start.p0(i64 8, ptr %7) #11
  %15 = load ptr, ptr %6, align 8, !tbaa !31
  %16 = call ptr @decode_ctx(ptr noundef %15)
  store ptr %16, ptr %7, align 8, !tbaa !32
  call void @llvm.lifetime.start.p0(i64 4, ptr %8) #11
  call void @llvm.lifetime.start.p0(i64 4, ptr %9) #11
  %17 = load ptr, ptr %4, align 8, !tbaa !4
  %18 = getelementptr inbounds nuw %struct.AVCodecContext, ptr %17, i32 0, i32 118
  %19 = load i32, ptr %18, align 8, !tbaa !97
  %20 = and i32 %19, 1
  %21 = icmp ne i32 %20, 0
  br i1 %21, label %22, label %26

22:                                               ; preds = %2
  %23 = load ptr, ptr %4, align 8, !tbaa !4
  %24 = load ptr, ptr %5, align 8, !tbaa !51
  %25 = call i32 @ff_thread_receive_frame(ptr noundef %23, ptr noundef %24)
  store i32 %25, ptr %8, align 4, !tbaa !41
  br label %30

26:                                               ; preds = %2
  %27 = load ptr, ptr %4, align 8, !tbaa !4
  %28 = load ptr, ptr %5, align 8, !tbaa !51
  %29 = call i32 @ff_decode_receive_frame_internal(ptr noundef %27, ptr noundef %28)
  store i32 %29, ptr %8, align 4, !tbaa !41
  br label %30

30:                                               ; preds = %26, %22
  %31 = load ptr, ptr %4, align 8, !tbaa !4
  %32 = load ptr, ptr %5, align 8, !tbaa !51
  %33 = call i32 @detect_colorspace(ptr noundef %31, ptr noundef %32)
  store i32 %33, ptr %9, align 4, !tbaa !41
  %34 = load i32, ptr %9, align 4, !tbaa !41
  %35 = icmp slt i32 %34, 0
  br i1 %35, label %36, label %39

36:                                               ; preds = %30
  %37 = load ptr, ptr %5, align 8, !tbaa !51
  call void @av_frame_unref(ptr noundef %37)
  %38 = load i32, ptr %9, align 4, !tbaa !41
  store i32 %38, ptr %3, align 4
  store i32 1, ptr %10, align 4
  br label %141

39:                                               ; preds = %30
  %40 = load i32, ptr %8, align 4, !tbaa !41
  %41 = icmp ne i32 %40, 0
  br i1 %41, label %137, label %42

42:                                               ; preds = %39
  %43 = load ptr, ptr %4, align 8, !tbaa !4
  %44 = getelementptr inbounds nuw %struct.AVCodecContext, ptr %43, i32 0, i32 2
  %45 = load i32, ptr %44, align 4, !tbaa !98
  %46 = icmp eq i32 %45, 0
  br i1 %46, label %47, label %70

47:                                               ; preds = %42
  %48 = load ptr, ptr %5, align 8, !tbaa !51
  %49 = getelementptr inbounds nuw %struct.AVFrame, ptr %48, i32 0, i32 3
  %50 = load i32, ptr %49, align 8, !tbaa !99
  %51 = icmp ne i32 %50, 0
  br i1 %51, label %58, label %52

52:                                               ; preds = %47
  %53 = load ptr, ptr %4, align 8, !tbaa !4
  %54 = getelementptr inbounds nuw %struct.AVCodecContext, ptr %53, i32 0, i32 18
  %55 = load i32, ptr %54, align 8, !tbaa !100
  %56 = load ptr, ptr %5, align 8, !tbaa !51
  %57 = getelementptr inbounds nuw %struct.AVFrame, ptr %56, i32 0, i32 3
  store i32 %55, ptr %57, align 8, !tbaa !99
  br label %58

58:                                               ; preds = %52, %47
  %59 = load ptr, ptr %5, align 8, !tbaa !51
  %60 = getelementptr inbounds nuw %struct.AVFrame, ptr %59, i32 0, i32 4
  %61 = load i32, ptr %60, align 4, !tbaa !101
  %62 = icmp ne i32 %61, 0
  br i1 %62, label %69, label %63

63:                                               ; preds = %58
  %64 = load ptr, ptr %4, align 8, !tbaa !4
  %65 = getelementptr inbounds nuw %struct.AVCodecContext, ptr %64, i32 0, i32 19
  %66 = load i32, ptr %65, align 4, !tbaa !102
  %67 = load ptr, ptr %5, align 8, !tbaa !51
  %68 = getelementptr inbounds nuw %struct.AVFrame, ptr %67, i32 0, i32 4
  store i32 %66, ptr %68, align 4, !tbaa !101
  br label %69

69:                                               ; preds = %63, %58
  br label %70

70:                                               ; preds = %69, %42
  %71 = load ptr, ptr %4, align 8, !tbaa !4
  %72 = load ptr, ptr %5, align 8, !tbaa !51
  %73 = call i32 @fill_frame_props(ptr noundef %71, ptr noundef %72)
  store i32 %73, ptr %8, align 4, !tbaa !41
  %74 = load i32, ptr %8, align 4, !tbaa !41
  %75 = icmp slt i32 %74, 0
  br i1 %75, label %76, label %79

76:                                               ; preds = %70
  %77 = load ptr, ptr %5, align 8, !tbaa !51
  call void @av_frame_unref(ptr noundef %77)
  %78 = load i32, ptr %8, align 4, !tbaa !41
  store i32 %78, ptr %3, align 4
  store i32 1, ptr %10, align 4
  br label %141

79:                                               ; preds = %70
  %80 = load ptr, ptr %7, align 8, !tbaa !32
  %81 = load ptr, ptr %5, align 8, !tbaa !51
  %82 = getelementptr inbounds nuw %struct.AVFrame, ptr %81, i32 0, i32 9
  %83 = load i64, ptr %82, align 8, !tbaa !89
  %84 = load ptr, ptr %5, align 8, !tbaa !51
  %85 = getelementptr inbounds nuw %struct.AVFrame, ptr %84, i32 0, i32 10
  %86 = load i64, ptr %85, align 8, !tbaa !90
  %87 = call i64 @guess_correct_pts(ptr noundef %80, i64 noundef %83, i64 noundef %86)
  %88 = load ptr, ptr %5, align 8, !tbaa !51
  %89 = getelementptr inbounds nuw %struct.AVFrame, ptr %88, i32 0, i32 27
  store i64 %87, ptr %89, align 8, !tbaa !103
  br label %90

90:                                               ; preds = %79
  %91 = load ptr, ptr %5, align 8, !tbaa !51
  %92 = getelementptr inbounds nuw %struct.AVFrame, ptr %91, i32 0, i32 36
  %93 = load ptr, ptr %92, align 8, !tbaa !104
  %94 = icmp ne ptr %93, null
  br i1 %94, label %104, label %95

95:                                               ; preds = %90
  %96 = load ptr, ptr %4, align 8, !tbaa !4
  %97 = getelementptr inbounds nuw %struct.AVCodecContext, ptr %96, i32 0, i32 3
  %98 = load ptr, ptr %97, align 8, !tbaa !50
  %99 = getelementptr inbounds nuw %struct.AVCodec, ptr %98, i32 0, i32 4
  %100 = load i32, ptr %99, align 8, !tbaa !105
  %101 = and i32 %100, 2
  %102 = icmp ne i32 %101, 0
  br i1 %102, label %103, label %104

103:                                              ; preds = %95
  call void (ptr, i32, ptr, ...) @av_log(ptr noundef null, i32 noundef 0, ptr noundef @.str, ptr noundef @.str.48, ptr noundef @.str.2, i32 noundef 683)
  call void @abort() #12
  unreachable

104:                                              ; preds = %95, %90
  br label %105

105:                                              ; preds = %104
  br label %106

106:                                              ; preds = %105
  %107 = load ptr, ptr %5, align 8, !tbaa !51
  %108 = getelementptr inbounds nuw %struct.AVFrame, ptr %107, i32 0, i32 36
  %109 = load ptr, ptr %108, align 8, !tbaa !104
  %110 = icmp ne ptr %109, null
  br i1 %110, label %111, label %136

111:                                              ; preds = %106
  call void @llvm.lifetime.start.p0(i64 8, ptr %11) #11
  %112 = load ptr, ptr %5, align 8, !tbaa !51
  %113 = getelementptr inbounds nuw %struct.AVFrame, ptr %112, i32 0, i32 36
  %114 = load ptr, ptr %113, align 8, !tbaa !104
  store ptr %114, ptr %11, align 8, !tbaa !106
  %115 = load ptr, ptr %11, align 8, !tbaa !106
  %116 = getelementptr inbounds nuw %struct.FrameDecodeData, ptr %115, i32 0, i32 0
  %117 = load ptr, ptr %116, align 8, !tbaa !108
  %118 = icmp ne ptr %117, null
  br i1 %118, label %119, label %132

119:                                              ; preds = %111
  %120 = load ptr, ptr %11, align 8, !tbaa !106
  %121 = getelementptr inbounds nuw %struct.FrameDecodeData, ptr %120, i32 0, i32 0
  %122 = load ptr, ptr %121, align 8, !tbaa !108
  %123 = load ptr, ptr %4, align 8, !tbaa !4
  %124 = load ptr, ptr %5, align 8, !tbaa !51
  %125 = call i32 %122(ptr noundef %123, ptr noundef %124)
  store i32 %125, ptr %8, align 4, !tbaa !41
  %126 = load i32, ptr %8, align 4, !tbaa !41
  %127 = icmp slt i32 %126, 0
  br i1 %127, label %128, label %131

128:                                              ; preds = %119
  %129 = load ptr, ptr %5, align 8, !tbaa !51
  call void @av_frame_unref(ptr noundef %129)
  %130 = load i32, ptr %8, align 4, !tbaa !41
  store i32 %130, ptr %3, align 4
  store i32 1, ptr %10, align 4
  br label %133

131:                                              ; preds = %119
  br label %132

132:                                              ; preds = %131, %111
  store i32 0, ptr %10, align 4
  br label %133

133:                                              ; preds = %132, %128
  call void @llvm.lifetime.end.p0(i64 8, ptr %11) #11
  %134 = load i32, ptr %10, align 4
  switch i32 %134, label %141 [
    i32 0, label %135
  ]

135:                                              ; preds = %133
  br label %136

136:                                              ; preds = %135, %106
  br label %137

137:                                              ; preds = %136, %39
  %138 = load ptr, ptr %5, align 8, !tbaa !51
  %139 = getelementptr inbounds nuw %struct.AVFrame, ptr %138, i32 0, i32 36
  call void @av_refstruct_unref(ptr noundef %139)
  %140 = load i32, ptr %8, align 4, !tbaa !41
  store i32 %140, ptr %3, align 4
  store i32 1, ptr %10, align 4
  br label %141

141:                                              ; preds = %137, %133, %76, %36
  call void @llvm.lifetime.end.p0(i64 4, ptr %9) #11
  call void @llvm.lifetime.end.p0(i64 4, ptr %8) #11
  call void @llvm.lifetime.end.p0(i64 8, ptr %7) #11
  call void @llvm.lifetime.end.p0(i64 8, ptr %6) #11
  %142 = load i32, ptr %3, align 4
  ret i32 %142
}