; Function Attrs: nounwind uwtable
define internal fastcc i32 @decode_receive_frame_internal(ptr noundef %0, ptr noundef %1) unnamed_addr #0 {
  %3 = getelementptr inbounds nuw i8, ptr %0, i64 40
  %4 = load ptr, ptr %3, align 8, !tbaa !4
  %5 = getelementptr inbounds nuw i8, ptr %0, i64 664
  %6 = load i32, ptr %5, align 8, !tbaa !73
  %7 = and i32 %6, 1
  %.not = icmp eq i32 %7, 0
  br i1 %.not, label %10, label %8

8:                                                ; preds = %2
  %9 = tail call i32 @ff_thread_receive_frame(ptr noundef nonnull %0, ptr noundef %1) #10
  br label %12

10:                                               ; preds = %2
  %11 = tail call i32 @ff_decode_receive_frame_internal(ptr noundef nonnull %0, ptr noundef %1)
  br label %12

12:                                               ; preds = %10, %8
  %.044 = phi i32 [ %9, %8 ], [ %11, %10 ]
  %.not53 = icmp eq i32 %.044, 0
  br i1 %.not53, label %13, label %.thread

13:                                               ; preds = %12
  %14 = getelementptr inbounds nuw i8, ptr %0, i64 12
  %15 = load i32, ptr %14, align 4, !tbaa !92
  %16 = icmp eq i32 %15, 0
  br i1 %16, label %17, label %29

17:                                               ; preds = %13
  %18 = getelementptr inbounds nuw i8, ptr %1, i64 104
  %19 = load i32, ptr %18, align 8, !tbaa !93
  %.not54 = icmp eq i32 %19, 0
  br i1 %.not54, label %20, label %23

20:                                               ; preds = %17
  %21 = getelementptr inbounds nuw i8, ptr %0, i64 112
  %22 = load i32, ptr %21, align 8, !tbaa !46
  store i32 %22, ptr %18, align 8, !tbaa !93
  br label %23

23:                                               ; preds = %20, %17
  %24 = getelementptr inbounds nuw i8, ptr %1, i64 108
  %25 = load i32, ptr %24, align 4, !tbaa !94
  %.not55 = icmp eq i32 %25, 0
  br i1 %.not55, label %26, label %29

26:                                               ; preds = %23
  %27 = getelementptr inbounds nuw i8, ptr %0, i64 116
  %28 = load i32, ptr %27, align 4, !tbaa !47
  store i32 %28, ptr %24, align 4, !tbaa !94
  br label %29

29:                                               ; preds = %23, %26, %13
  %30 = tail call fastcc i32 @fill_frame_props(ptr noundef nonnull %0, ptr noundef %1)
  %31 = icmp slt i32 %30, 0
  br i1 %31, label %32, label %33

32:                                               ; preds = %29
  tail call void @av_frame_unref(ptr noundef %1) #10
  br label %81

33:                                               ; preds = %29
  %34 = getelementptr inbounds nuw i8, ptr %1, i64 136
  %35 = load i64, ptr %34, align 8, !tbaa !89
  %36 = getelementptr inbounds nuw i8, ptr %1, i64 144
  %37 = load i64, ptr %36, align 8, !tbaa !71
  %.not.i = icmp eq i64 %37, -9223372036854775808
  br i1 %.not.i, label %38, label %40

38:                                               ; preds = %33
  %.not30.i = icmp eq i64 %35, -9223372036854775808
  br i1 %.not30.i, label %guess_correct_pts.exit, label %.thread.i

.thread.i:                                        ; preds = %38
  %39 = getelementptr inbounds nuw i8, ptr %4, i64 192
  store i64 %35, ptr %39, align 8, !tbaa !95
  br label %48

40:                                               ; preds = %33
  %41 = getelementptr inbounds nuw i8, ptr %4, i64 192
  %42 = load i64, ptr %41, align 8, !tbaa !95
  %43 = icmp sle i64 %37, %42
  %44 = zext i1 %43 to i64
  %45 = getelementptr inbounds nuw i8, ptr %4, i64 176
  %46 = load i64, ptr %45, align 8, !tbaa !96
  %47 = add nsw i64 %46, %44
  store i64 %47, ptr %45, align 8, !tbaa !96
  store i64 %37, ptr %41, align 8, !tbaa !95
  %.not33.i = icmp eq i64 %35, -9223372036854775808
  br i1 %.not33.i, label %56, label %48

48:                                               ; preds = %40, %.thread.i
  %49 = getelementptr inbounds nuw i8, ptr %4, i64 184
  %50 = load i64, ptr %49, align 8, !tbaa !97
  %51 = icmp sle i64 %35, %50
  %52 = zext i1 %51 to i64
  %53 = getelementptr inbounds nuw i8, ptr %4, i64 168
  %54 = load i64, ptr %53, align 8, !tbaa !98
  %55 = add nsw i64 %54, %52
  store i64 %55, ptr %53, align 8, !tbaa !98
  store i64 %35, ptr %49, align 8, !tbaa !97
  br label %guess_correct_pts.exit

56:                                               ; preds = %40
  %57 = getelementptr inbounds nuw i8, ptr %4, i64 184
  store i64 %37, ptr %57, align 8, !tbaa !97
  br label %guess_correct_pts.exit

guess_correct_pts.exit:                           ; preds = %38, %48, %56
  %58 = phi i1 [ false, %56 ], [ true, %48 ], [ false, %38 ]
  %59 = getelementptr inbounds nuw i8, ptr %4, i64 168
  %60 = load i64, ptr %59, align 8, !tbaa !98
  %61 = getelementptr inbounds nuw i8, ptr %4, i64 176
  %62 = load i64, ptr %61, align 8, !tbaa !96
  %63 = icmp sle i64 %60, %62
  %or.cond.i = or i1 %.not.i, %63
  %or.cond3.i = and i1 %58, %or.cond.i
  %..i = select i1 %or.cond3.i, i64 %35, i64 %37
  %64 = getelementptr inbounds nuw i8, ptr %1, i64 304
  store i64 %..i, ptr %64, align 8, !tbaa !99
  %65 = getelementptr inbounds nuw i8, ptr %1, i64 376
  %66 = load ptr, ptr %65, align 8, !tbaa !100
  %.not56 = icmp eq ptr %66, null
  br i1 %.not56, label %67, label %74

67:                                               ; preds = %guess_correct_pts.exit
  %68 = getelementptr inbounds nuw i8, ptr %0, i64 16
  %69 = load ptr, ptr %68, align 8, !tbaa !36
  %70 = getelementptr inbounds nuw i8, ptr %69, i64 24
  %71 = load i32, ptr %70, align 8, !tbaa !38
  %72 = and i32 %71, 2
  %.not57 = icmp eq i32 %72, 0
  br i1 %.not57, label %.thread, label %73

73:                                               ; preds = %67
  tail call void (ptr, i32, ptr, ...) @av_log(ptr noundef null, i32 noundef 0, ptr noundef nonnull @.str, ptr noundef nonnull @.str.48, ptr noundef nonnull @.str.2, i32 noundef 683) #10
  tail call void @abort() #11
  unreachable

74:                                               ; preds = %guess_correct_pts.exit
  %75 = load ptr, ptr %66, align 8, !tbaa !101
  %.not59 = icmp eq ptr %75, null
  br i1 %.not59, label %.thread, label %76

76:                                               ; preds = %74
  %77 = tail call i32 %75(ptr noundef nonnull %0, ptr noundef nonnull %1) #10
  %78 = icmp slt i32 %77, 0
  br i1 %78, label %79, label %.thread

79:                                               ; preds = %76
  tail call void @av_frame_unref(ptr noundef nonnull %1) #10
  br label %81

.thread:                                          ; preds = %74, %76, %67, %12
  %.145 = phi i32 [ %.044, %12 ], [ 0, %67 ], [ 0, %74 ], [ %77, %76 ]
  %80 = getelementptr inbounds nuw i8, ptr %1, i64 376
  tail call void @av_refstruct_unref(ptr noundef nonnull %80) #10
  br label %81

81:                                               ; preds = %79, %.thread, %32
  %.0 = phi i32 [ %.145, %.thread ], [ %30, %32 ], [ %77, %79 ]
  ret i32 %.0
}